target datalayout = "e-m:e-p270:32:32-p271:32:32-p272:64:64-i64:64-i128:128-f80:128-n8:16:32:64-S128"
target triple = "x86_64-pc-linux-gnu"

%struct.timeval = type { i64, i64 }
%union.pthread_mutex_t = type { %struct.__pthread_mutex_s }
%struct.__pthread_mutex_s = type { i32, i32, i32, i32, i32, i16, i16, %struct.__pthread_internal_list }
%struct.__pthread_internal_list = type { ptr, ptr }
%struct.event = type { %struct.event_callback, %union.anon.1, i32, ptr, %union.anon.3, i16, i16, %struct.timeval }
%struct.event_callback = type { %struct.anon.0, i16, i8, i8, %union.anon, ptr }
%struct.anon.0 = type { ptr, ptr }
%union.anon = type { ptr }
%union.anon.1 = type { %struct.anon.2 }
%struct.anon.2 = type { ptr, ptr }
%union.anon.3 = type { %struct.anon.4 }
%struct.anon.4 = type { %struct.anon.5, %struct.timeval }
%struct.anon.5 = type { ptr, ptr }
%struct.conn = type { ptr, i32, i8, i8, i8, i8, i8, i8, i8, i8, ptr, i32, i32, i32, %struct.event, i16, i16, ptr, ptr, i32, i32, ptr, ptr, ptr, i32, ptr, i32, i32, i32, i32, i32, i32, i32, %struct.sockaddr_in6, i32, i8, %struct.anon.9, %union.protocol_binary_request_header, i64, i64, i16, i32, i32, ptr, ptr, ptr, ptr, ptr, ptr }
%struct.sockaddr_in6 = type { i16, i16, i32, %struct.in6_addr, i32 }
%struct.in6_addr = type { %union.anon.8 }
%union.anon.8 = type { [4 x i32] }
%struct.anon.9 = type { ptr, i64, i64 }
%union.protocol_binary_request_header = type { %struct.anon.10 }
%struct.anon.10 = type { i8, i8, i16, i8, i8, i16, i32, i32, i64 }
%struct.LIBEVENT_THREAD = type { i64, ptr, %struct.thread_notify, %struct.thread_notify, %union.pthread_mutex_t, %struct.iop_head_s, i32, i32, i32, %struct.thread_stats, [3 x %struct.io_queue_s], ptr, ptr, ptr, ptr, ptr, ptr, ptr, i32 }
%struct.thread_notify = type { %struct.event, i32 }
%struct.iop_head_s = type { ptr, ptr }
%struct.thread_stats = type { %union.pthread_mutex_t, i64, i64, i64, i64, i64, i64, i64, i64, i64, i64, i64, i64, i64, i64, i64, i64, i64, i64, i64, i64, i64, i64, i64, i64, i64, i64, i64, i64, i64, i64, [64 x %struct.slab_stats], [256 x i64], i64, i64, i64 }
%struct.slab_stats = type { i64, i64, i64, i64, i64, i64, i64, i64 }
%struct.io_queue_s = type { ptr, %struct.iop_head_s, ptr, i32 }
%struct._mc_resp = type { ptr, ptr, i32, i32, ptr, ptr, ptr, [4 x %struct.iovec], i32, i8, i8, i8, i8, i8, i16, i16, i16, %struct.sockaddr_in6, i32, [1024 x i8] }
%struct.iovec = type { ptr, i64 }
%struct._mc_resp_bundle = type { i8, i8, ptr, ptr, ptr, [0 x %struct._mc_resp] }

; Function Attrs: nounwind uwtable
define internal ptr @resp_allocate(ptr noundef %0) #0 {
  %2 = alloca ptr, align 8
  %3 = alloca ptr, align 8
  %4 = alloca ptr, align 8
  %5 = alloca ptr, align 8
  %6 = alloca ptr, align 8
  %7 = alloca i32, align 4
  %8 = alloca i32, align 4
  %9 = alloca i32, align 4
  %10 = alloca i32, align 4
  store ptr %0, ptr %3, align 8, !tbaa !10
  call void @llvm.lifetime.start.p0(i64 8, ptr %4) #15
  %11 = load ptr, ptr %3, align 8, !tbaa !10
  %12 = getelementptr inbounds nuw %struct.conn, ptr %11, i32 0, i32 44
  %13 = load ptr, ptr %12, align 8, !tbaa !32
  store ptr %13, ptr %4, align 8, !tbaa !68
  call void @llvm.lifetime.start.p0(i64 8, ptr %5) #15
  store ptr null, ptr %5, align 8, !tbaa !132
  call void @llvm.lifetime.start.p0(i64 8, ptr %6) #15
  %14 = load ptr, ptr %4, align 8, !tbaa !68
  %15 = getelementptr inbounds nuw %struct.LIBEVENT_THREAD, ptr %14, i32 0, i32 13
  %16 = load ptr, ptr %15, align 8, !tbaa !157
  store ptr %16, ptr %6, align 8, !tbaa !156
  %17 = load ptr, ptr %6, align 8, !tbaa !156
  %18 = icmp ne ptr %17, null
  br i1 %18, label %19, label %101

19:                                               ; preds = %1
  call void @llvm.lifetime.start.p0(i64 4, ptr %7) #15
  store i32 0, ptr %7, align 4, !tbaa !8
  br label %20

20:                                               ; preds = %58, %19
  %21 = load i32, ptr %7, align 4, !tbaa !8
  %22 = sext i32 %21 to i64
  %23 = icmp ult i64 %22, 13
  br i1 %23, label %25, label %24

24:                                               ; preds = %20
  store i32 2, ptr %8, align 4
  br label %61

25:                                               ; preds = %20
  call void @llvm.lifetime.start.p0(i64 4, ptr %9) #15
  %26 = load i32, ptr %7, align 4, !tbaa !8
  %27 = load ptr, ptr %6, align 8, !tbaa !156
  %28 = getelementptr inbounds nuw %struct._mc_resp_bundle, ptr %27, i32 0, i32 1
  %29 = load i8, ptr %28, align 1, !tbaa !61
  %30 = zext i8 %29 to i32
  %31 = add nsw i32 %26, %30
  %32 = sext i32 %31 to i64
  %33 = urem i64 %32, 13
  %34 = trunc i64 %33 to i32
  store i32 %34, ptr %9, align 4, !tbaa !8
  %35 = load ptr, ptr %6, align 8, !tbaa !156
  %36 = getelementptr inbounds nuw %struct._mc_resp_bundle, ptr %35, i32 0, i32 5
  %37 = load i32, ptr %9, align 4, !tbaa !8
  %38 = sext i32 %37 to i64
  %39 = getelementptr inbounds [0 x %struct._mc_resp], ptr %36, i64 0, i64 %38
  %40 = getelementptr inbounds nuw %struct._mc_resp, ptr %39, i32 0, i32 13
  %41 = load i8, ptr %40, align 8, !tbaa !133, !range !59, !noundef !60
  %42 = trunc i8 %41 to i1
  br i1 %42, label %43, label %54

43:                                               ; preds = %25
  %44 = load ptr, ptr %6, align 8, !tbaa !156
  %45 = getelementptr inbounds nuw %struct._mc_resp_bundle, ptr %44, i32 0, i32 5
  %46 = load i32, ptr %9, align 4, !tbaa !8
  %47 = sext i32 %46 to i64
  %48 = getelementptr inbounds [0 x %struct._mc_resp], ptr %45, i64 0, i64 %47
  store ptr %48, ptr %5, align 8, !tbaa !132
  %49 = load i32, ptr %9, align 4, !tbaa !8
  %50 = add nsw i32 %49, 1
  %51 = trunc i32 %50 to i8
  %52 = load ptr, ptr %6, align 8, !tbaa !156
  %53 = getelementptr inbounds nuw %struct._mc_resp_bundle, ptr %52, i32 0, i32 1
  store i8 %51, ptr %53, align 1, !tbaa !61
  store i32 2, ptr %8, align 4
  br label %55

54:                                               ; preds = %25
  store i32 0, ptr %8, align 4
  br label %55

55:                                               ; preds = %54, %43
  call void @llvm.lifetime.end.p0(i64 4, ptr %9) #15
  %56 = load i32, ptr %8, align 4
  switch i32 %56, label %61 [
    i32 0, label %57
  ]

57:                                               ; preds = %55
  br label %58

58:                                               ; preds = %57
  %59 = load i32, ptr %7, align 4, !tbaa !8
  %60 = add nsw i32 %59, 1
  store i32 %60, ptr %7, align 4, !tbaa !8
  br label %20, !llvm.loop !167

61:                                               ; preds = %55, %24
  call void @llvm.lifetime.end.p0(i64 4, ptr %7) #15
  br label %62

62:                                               ; preds = %61
  %63 = load ptr, ptr %5, align 8, !tbaa !132
  %64 = icmp ne ptr %63, null
  br i1 %64, label %65, label %100

65:                                               ; preds = %62
  %66 = load ptr, ptr %6, align 8, !tbaa !156
  %67 = getelementptr inbounds nuw %struct._mc_resp_bundle, ptr %66, i32 0, i32 0
  %68 = load i8, ptr %67, align 8, !tbaa !61
  %69 = add i8 %68, 1
  store i8 %69, ptr %67, align 8, !tbaa !61
  %70 = load ptr, ptr %5, align 8, !tbaa !132
  call void @llvm.memset.p0.i64(ptr align 8 %70, i8 0, i64 1184, i1 false)
  %71 = load ptr, ptr %5, align 8, !tbaa !132
  %72 = getelementptr inbounds nuw %struct._mc_resp, ptr %71, i32 0, i32 13
  store i8 0, ptr %72, align 8, !tbaa !133
  %73 = load ptr, ptr %6, align 8, !tbaa !156
  %74 = load ptr, ptr %5, align 8, !tbaa !132
  %75 = getelementptr inbounds nuw %struct._mc_resp, ptr %74, i32 0, i32 0
  store ptr %73, ptr %75, align 8, !tbaa !155
  %76 = load ptr, ptr %6, align 8, !tbaa !156
  %77 = getelementptr inbounds nuw %struct._mc_resp_bundle, ptr %76, i32 0, i32 0
  %78 = load i8, ptr %77, align 8, !tbaa !61
  %79 = zext i8 %78 to i64
  %80 = icmp eq i64 %79, 13
  br i1 %80, label %81, label %99

81:                                               ; preds = %65
  %82 = load ptr, ptr %6, align 8, !tbaa !156
  %83 = getelementptr inbounds nuw %struct._mc_resp_bundle, ptr %82, i32 0, i32 3
  %84 = load ptr, ptr %83, align 8, !tbaa !156
  %85 = load ptr, ptr %4, align 8, !tbaa !68
  %86 = getelementptr inbounds nuw %struct.LIBEVENT_THREAD, ptr %85, i32 0, i32 13
  store ptr %84, ptr %86, align 8, !tbaa !157
  %87 = load ptr, ptr %6, align 8, !tbaa !156
  %88 = getelementptr inbounds nuw %struct._mc_resp_bundle, ptr %87, i32 0, i32 3
  %89 = load ptr, ptr %88, align 8, !tbaa !156
  %90 = icmp ne ptr %89, null
  br i1 %90, label %91, label %98

91:                                               ; preds = %81
  %92 = load ptr, ptr %6, align 8, !tbaa !156
  %93 = getelementptr inbounds nuw %struct._mc_resp_bundle, ptr %92, i32 0, i32 3
  %94 = load ptr, ptr %93, align 8, !tbaa !156
  %95 = getelementptr inbounds nuw %struct._mc_resp_bundle, ptr %94, i32 0, i32 4
  store ptr null, ptr %95, align 8, !tbaa !156
  %96 = load ptr, ptr %6, align 8, !tbaa !156
  %97 = getelementptr inbounds nuw %struct._mc_resp_bundle, ptr %96, i32 0, i32 3
  store ptr null, ptr %97, align 8, !tbaa !156
  br label %98

98:                                               ; preds = %91, %81
  br label %99

99:                                               ; preds = %98, %65
  br label %100

100:                                              ; preds = %99, %62
  br label %101

101:                                              ; preds = %100, %1
  %102 = load ptr, ptr %5, align 8, !tbaa !132
  %103 = icmp eq ptr %102, null
  br i1 %103, label %104, label %166

104:                                              ; preds = %101
  %105 = load ptr, ptr %4, align 8, !tbaa !68
  %106 = getelementptr inbounds nuw %struct.LIBEVENT_THREAD, ptr %105, i32 0, i32 12
  %107 = load ptr, ptr %106, align 8, !tbaa !33
  %108 = call ptr @do_cache_alloc(ptr noundef %107)
  store ptr %108, ptr %6, align 8, !tbaa !156
  %109 = load ptr, ptr %6, align 8, !tbaa !156
  %110 = icmp ne ptr %109, null
  br i1 %110, label %111, label %164

111:                                              ; preds = %104
  %112 = load ptr, ptr %4, align 8, !tbaa !68
  %113 = getelementptr inbounds nuw %struct.LIBEVENT_THREAD, ptr %112, i32 0, i32 9
  %114 = getelementptr inbounds nuw %struct.thread_stats, ptr %113, i32 0, i32 0
  %115 = call i32 @pthread_mutex_lock(ptr noundef %114) #15
  %116 = load ptr, ptr %4, align 8, !tbaa !68
  %117 = getelementptr inbounds nuw %struct.LIBEVENT_THREAD, ptr %116, i32 0, i32 9
  %118 = getelementptr inbounds nuw %struct.thread_stats, ptr %117, i32 0, i32 21
  %119 = load i64, ptr %118, align 8, !tbaa !160
  %120 = add i64 %119, 16384
  store i64 %120, ptr %118, align 8, !tbaa !160
  %121 = load ptr, ptr %4, align 8, !tbaa !68
  %122 = getelementptr inbounds nuw %struct.LIBEVENT_THREAD, ptr %121, i32 0, i32 9
  %123 = getelementptr inbounds nuw %struct.thread_stats, ptr %122, i32 0, i32 0
  %124 = call i32 @pthread_mutex_unlock(ptr noundef %123) #15
  %125 = load ptr, ptr %6, align 8, !tbaa !156
  %126 = getelementptr inbounds nuw %struct._mc_resp_bundle, ptr %125, i32 0, i32 1
  store i8 1, ptr %126, align 1, !tbaa !61
  %127 = load ptr, ptr %6, align 8, !tbaa !156
  %128 = getelementptr inbounds nuw %struct._mc_resp_bundle, ptr %127, i32 0, i32 0
  store i8 1, ptr %128, align 8, !tbaa !61
  call void @llvm.lifetime.start.p0(i64 4, ptr %10) #15
  store i32 0, ptr %10, align 4, !tbaa !8
  br label %129

129:                                              ; preds = %141, %111
  %130 = load i32, ptr %10, align 4, !tbaa !8
  %131 = sext i32 %130 to i64
  %132 = icmp ult i64 %131, 13
  br i1 %132, label %134, label %133

133:                                              ; preds = %129
  store i32 5, ptr %8, align 4
  call void @llvm.lifetime.end.p0(i64 4, ptr %10) #15
  br label %144

134:                                              ; preds = %129
  %135 = load ptr, ptr %6, align 8, !tbaa !156
  %136 = getelementptr inbounds nuw %struct._mc_resp_bundle, ptr %135, i32 0, i32 5
  %137 = load i32, ptr %10, align 4, !tbaa !8
  %138 = sext i32 %137 to i64
  %139 = getelementptr inbounds [0 x %struct._mc_resp], ptr %136, i64 0, i64 %138
  %140 = getelementptr inbounds nuw %struct._mc_resp, ptr %139, i32 0, i32 13
  store i8 1, ptr %140, align 8, !tbaa !133
  br label %141

141:                                              ; preds = %134
  %142 = load i32, ptr %10, align 4, !tbaa !8
  %143 = add nsw i32 %142, 1
  store i32 %143, ptr %10, align 4, !tbaa !8
  br label %129, !llvm.loop !168

144:                                              ; preds = %133
  %145 = load ptr, ptr %6, align 8, !tbaa !156
  %146 = getelementptr inbounds nuw %struct._mc_resp_bundle, ptr %145, i32 0, i32 3
  store ptr null, ptr %146, align 8, !tbaa !156
  %147 = load ptr, ptr %6, align 8, !tbaa !156
  %148 = getelementptr inbounds nuw %struct._mc_resp_bundle, ptr %147, i32 0, i32 4
  store ptr null, ptr %148, align 8, !tbaa !156
  %149 = load ptr, ptr %4, align 8, !tbaa !68
  %150 = load ptr, ptr %6, align 8, !tbaa !156
  %151 = getelementptr inbounds nuw %struct._mc_resp_bundle, ptr %150, i32 0, i32 2
  store ptr %149, ptr %151, align 8, !tbaa !68
  %152 = load ptr, ptr %6, align 8, !tbaa !156
  %153 = load ptr, ptr %4, align 8, !tbaa !68
  %154 = getelementptr inbounds nuw %struct.LIBEVENT_THREAD, ptr %153, i32 0, i32 13
  store ptr %152, ptr %154, align 8, !tbaa !157
  %155 = load ptr, ptr %6, align 8, !tbaa !156
  %156 = getelementptr inbounds nuw %struct._mc_resp_bundle, ptr %155, i32 0, i32 5
  %157 = getelementptr inbounds [0 x %struct._mc_resp], ptr %156, i64 0, i64 0
  store ptr %157, ptr %5, align 8, !tbaa !132
  %158 = load ptr, ptr %5, align 8, !tbaa !132
  call void @llvm.memset.p0.i64(ptr align 8 %158, i8 0, i64 1184, i1 false)
  %159 = load ptr, ptr %5, align 8, !tbaa !132
  %160 = getelementptr inbounds nuw %struct._mc_resp, ptr %159, i32 0, i32 13
  store i8 0, ptr %160, align 8, !tbaa !133
  %161 = load ptr, ptr %6, align 8, !tbaa !156
  %162 = load ptr, ptr %5, align 8, !tbaa !132
  %163 = getelementptr inbounds nuw %struct._mc_resp, ptr %162, i32 0, i32 0
  store ptr %161, ptr %163, align 8, !tbaa !155
  br label %165

164:                                              ; preds = %104
  store ptr null, ptr %2, align 8
  store i32 1, ptr %8, align 4
  br label %168

165:                                              ; preds = %144
  br label %166

166:                                              ; preds = %165, %101
  %167 = load ptr, ptr %5, align 8, !tbaa !132
  store ptr %167, ptr %2, align 8
  store i32 1, ptr %8, align 4
  br label %168

168:                                              ; preds = %166, %164
  call void @llvm.lifetime.end.p0(i64 8, ptr %6) #15
  call void @llvm.lifetime.end.p0(i64 8, ptr %5) #15
  call void @llvm.lifetime.end.p0(i64 8, ptr %4) #15
  %169 = load ptr, ptr %2, align 8
  ret ptr %169
}