; Function Attrs: nounwind uwtable
define internal fastcc ptr @resp_allocate(ptr %.400.val) unnamed_addr #1 {
  %1 = getelementptr inbounds nuw i8, ptr %.400.val, i64 6944
  %2 = load ptr, ptr %1, align 8, !tbaa !166
  %.not = icmp eq ptr %2, null
  br i1 %.not, label %.loopexit, label %.preheader

.preheader:                                       ; preds = %0
  %3 = getelementptr inbounds nuw i8, ptr %2, i64 1
  %4 = load i8, ptr %3, align 1, !tbaa !76
  %5 = zext i8 %4 to i32
  %6 = getelementptr inbounds nuw i8, ptr %2, i64 32
  br label %9

7:                                                ; preds = %9
  %8 = add nuw nsw i32 %.05210, 1
  %exitcond.not = icmp eq i32 %8, 13
  br i1 %exitcond.not, label %.loopexit, label %9, !llvm.loop !172

9:                                                ; preds = %.preheader, %7
  %.05210 = phi i32 [ 0, %.preheader ], [ %8, %7 ]
  %10 = add nuw nsw i32 %.05210, %5
  %.lhs.trunc = trunc nuw nsw i32 %10 to i16
  %11 = urem i16 %.lhs.trunc, 13
  %12 = zext nneg i16 %11 to i64
  %13 = getelementptr inbounds nuw [0 x %struct._mc_resp], ptr %6, i64 0, i64 %12
  %14 = getelementptr inbounds nuw i8, ptr %13, i64 120
  %15 = load i8, ptr %14, align 8, !tbaa !156, !range !60, !noundef !61
  %16 = trunc nuw i8 %15 to i1
  br i1 %16, label %.thread2, label %7

.thread2:                                         ; preds = %9
  %17 = trunc nuw nsw i16 %11 to i8
  %18 = add nuw nsw i8 %17, 1
  store i8 %18, ptr %3, align 1, !tbaa !76
  %19 = load i8, ptr %2, align 8, !tbaa !76
  %20 = add i8 %19, 1
  store i8 %20, ptr %2, align 8, !tbaa !76
  %21 = getelementptr inbounds nuw i8, ptr %13, i64 8
  tail call void @llvm.memset.p0.i64(ptr noundef nonnull align 8 dereferenceable(1176) %21, i8 0, i64 1176, i1 false)
  store ptr %2, ptr %13, align 8, !tbaa !165
  %22 = icmp eq i8 %20, 13
  br i1 %22, label %23, label %.thread6

23:                                               ; preds = %.thread2
  %24 = getelementptr inbounds nuw i8, ptr %2, i64 16
  %25 = load ptr, ptr %24, align 8, !tbaa !167
  store ptr %25, ptr %1, align 8, !tbaa !166
  %.not59 = icmp eq ptr %25, null
  br i1 %.not59, label %.thread6, label %26

26:                                               ; preds = %23
  %27 = getelementptr inbounds nuw i8, ptr %25, i64 24
  store ptr null, ptr %27, align 8, !tbaa !167
  store ptr null, ptr %24, align 8, !tbaa !167
  br label %.thread6

.loopexit:                                        ; preds = %7, %0
  %28 = getelementptr inbounds nuw i8, ptr %.400.val, i64 6936
  %29 = load ptr, ptr %28, align 8, !tbaa !31
  %30 = tail call ptr @do_cache_alloc(ptr noundef %29) #34
  %.not60 = icmp eq ptr %30, null
  br i1 %.not60, label %.thread6, label %31

31:                                               ; preds = %.loopexit
  %32 = getelementptr inbounds nuw i8, ptr %.400.val, i64 360
  %33 = tail call i32 @pthread_mutex_lock(ptr noundef nonnull %32) #34
  %34 = getelementptr inbounds nuw i8, ptr %.400.val, i64 560
  %35 = load i64, ptr %34, align 8, !tbaa !168
  %36 = add i64 %35, 16384
  store i64 %36, ptr %34, align 8, !tbaa !168
  %37 = tail call i32 @pthread_mutex_unlock(ptr noundef nonnull %32) #34
  %38 = getelementptr inbounds nuw i8, ptr %30, i64 1
  store i8 1, ptr %38, align 1, !tbaa !76
  store i8 1, ptr %30, align 8, !tbaa !76
  %invariant.gep = getelementptr inbounds nuw i8, ptr %30, i64 152
  br label %44

39:                                               ; preds = %44
  %40 = getelementptr inbounds nuw i8, ptr %30, i64 16
  %41 = getelementptr inbounds nuw i8, ptr %30, i64 8
  tail call void @llvm.memset.p0.i64(ptr noundef nonnull align 8 dereferenceable(16) %40, i8 0, i64 16, i1 false)
  store ptr %.400.val, ptr %41, align 8, !tbaa !173
  store ptr %30, ptr %1, align 8, !tbaa !166
  %42 = getelementptr inbounds nuw i8, ptr %30, i64 32
  %43 = getelementptr inbounds nuw i8, ptr %30, i64 40
  tail call void @llvm.memset.p0.i64(ptr noundef nonnull align 8 dereferenceable(1176) %43, i8 0, i64 1176, i1 false)
  store ptr %30, ptr %42, align 8, !tbaa !165
  br label %.thread6

44:                                               ; preds = %31, %44
  %indvars.iv = phi i64 [ 0, %31 ], [ %indvars.iv.next, %44 ]
  %45 = mul nuw nsw i64 %indvars.iv, 1184
  %gep = getelementptr inbounds nuw i8, ptr %invariant.gep, i64 %45
  store i8 1, ptr %gep, align 8, !tbaa !156
  %indvars.iv.next = add nuw nsw i64 %indvars.iv, 1
  %exitcond17.not = icmp eq i64 %indvars.iv.next, 13
  br i1 %exitcond17.not, label %39, label %44, !llvm.loop !174

.thread6:                                         ; preds = %.thread2, %23, %26, %39, %.loopexit
  %.050 = phi ptr [ null, %.loopexit ], [ %42, %39 ], [ %13, %26 ], [ %13, %23 ], [ %13, %.thread2 ]
  ret ptr %.050
}